target datalayout = "e-m:e-p270:32:32-p271:32:32-p272:64:64-i64:64-i128:128-f80:128-n8:16:32:64-S128"
target triple = "x86_64-pc-linux-gnu"

%struct._zend_phpdbg_globals = type { [11 x %struct._zend_array], %struct._zend_array, %struct._zend_array, ptr, ptr, %struct.phpdbg_frame_t, i32, ptr, %struct.phpdbg_lexer_data, ptr, %struct.sigaction, i32, i64, %struct.phpdbg_btree, %struct.phpdbg_btree, %struct._zend_array, %struct._zend_array, %struct._zend_array, %struct._zend_array, ptr, ptr, ptr, i8, ptr, ptr, ptr, i64, ptr, %struct._zval_struct, i32, i32, i8, i8, ptr, ptr, ptr, %struct._zend_array, ptr, ptr, ptr, [3 x %struct.anon.8], ptr, %struct.anon.9, i64, [2 x ptr], [3 x ptr], ptr, i8, ptr, ptr, [500 x i8], i32, %struct.phpdbg_signal_safe_mem, ptr, i64, ptr, i64 }
%struct.phpdbg_frame_t = type { i32, ptr, ptr }
%struct.phpdbg_lexer_data = type { i32, ptr, ptr, ptr, ptr, i32 }
%struct.sigaction = type { %union.anon.2, %struct.__sigset_t, i32, ptr }
%union.anon.2 = type { ptr }
%struct.__sigset_t = type { [16 x i64] }
%struct.phpdbg_btree = type { i64, i64, i8, ptr }
%struct._zval_struct = type { %union._zend_value, %union.anon.4, %union.anon.7 }
%union._zend_value = type { i64 }
%union.anon.4 = type { i32 }
%union.anon.7 = type { i32 }
%struct._zend_array = type { %struct._zend_refcounted_h, %union.anon.0, i32, %union.anon.1, i32, i32, i32, i32, i64, ptr }
%struct._zend_refcounted_h = type { i32, %union.anon }
%union.anon = type { i32 }
%union.anon.0 = type { i32 }
%union.anon.1 = type { ptr }
%struct.anon.8 = type { i32 }
%struct.anon.9 = type { i8, i32, i32, ptr, i32 }
%struct.phpdbg_signal_safe_mem = type { ptr, i8, ptr, ptr }

@phpdbg_globals = external global %struct._zend_phpdbg_globals, align 8
@.str.43 = private unnamed_addr constant [27 x i8] c"Memory Manager Information\00", align 1
@.str.44 = private unnamed_addr constant [8 x i8] c"Current\00", align 1
@.str.45 = private unnamed_addr constant [24 x i8] c"|-------> Used:\09%.3f kB\00", align 1
@.str.46 = private unnamed_addr constant [24 x i8] c"|-------> Real:\09%.3f kB\00", align 1
@.str.47 = private unnamed_addr constant [5 x i8] c"Peak\00", align 1
@.str.48 = private unnamed_addr constant [25 x i8] c"Memory Manager Disabled!\00", align 1

; Function Attrs: nounwind uwtable
define hidden i32 @phpdbg_do_info_memory(ptr noundef %0) #0 {
  %2 = alloca ptr, align 8
  %3 = alloca i64, align 8
  %4 = alloca i64, align 8
  %5 = alloca i64, align 8
  %6 = alloca i64, align 8
  %7 = alloca ptr, align 8
  %8 = alloca i8, align 1
  store ptr %0, ptr %2, align 8, !tbaa !4
  call void @llvm.lifetime.start.p0(i64 8, ptr %3) #8
  call void @llvm.lifetime.start.p0(i64 8, ptr %4) #8
  call void @llvm.lifetime.start.p0(i64 8, ptr %5) #8
  call void @llvm.lifetime.start.p0(i64 8, ptr %6) #8
  call void @llvm.lifetime.start.p0(i64 8, ptr %7) #8
  store ptr null, ptr %7, align 8, !tbaa !132
  call void @llvm.lifetime.start.p0(i64 1, ptr %8) #8
  %9 = load i64, ptr getelementptr inbounds nuw (%struct._zend_phpdbg_globals, ptr @phpdbg_globals, i32 0, i32 54), align 8, !tbaa !133
  %10 = and i64 %9, 2147483648
  %11 = icmp ne i64 %10, 0
  br i1 %11, label %12, label %15

12:                                               ; preds = %1
  %13 = call ptr @phpdbg_original_heap_sigsafe_mem()
  %14 = call ptr @zend_mm_set_heap(ptr noundef %13)
  store ptr %14, ptr %7, align 8, !tbaa !132
  br label %15

15:                                               ; preds = %12, %1
  %16 = call zeroext i1 @is_zend_mm()
  %17 = zext i1 %16 to i8
  store i8 %17, ptr %8, align 1, !tbaa !125
  br i1 %16, label %18, label %23

18:                                               ; preds = %15
  %19 = call i64 @zend_memory_usage(i1 noundef zeroext false)
  store i64 %19, ptr %3, align 8, !tbaa !88
  %20 = call i64 @zend_memory_usage(i1 noundef zeroext true)
  store i64 %20, ptr %4, align 8, !tbaa !88
  %21 = call i64 @zend_memory_peak_usage(i1 noundef zeroext false)
  store i64 %21, ptr %5, align 8, !tbaa !88
  %22 = call i64 @zend_memory_peak_usage(i1 noundef zeroext true)
  store i64 %22, ptr %6, align 8, !tbaa !88
  br label %23

23:                                               ; preds = %18, %15
  %24 = load ptr, ptr %7, align 8, !tbaa !132
  %25 = icmp ne ptr %24, null
  br i1 %25, label %26, label %29

26:                                               ; preds = %23
  %27 = load ptr, ptr %7, align 8, !tbaa !132
  %28 = call ptr @zend_mm_set_heap(ptr noundef %27)
  br label %29

29:                                               ; preds = %26, %23
  %30 = load i8, ptr %8, align 1, !tbaa !125, !range !120, !noundef !121
  %31 = trunc i8 %30 to i1
  br i1 %31, label %32, label %63

32:                                               ; preds = %29
  %33 = load i32, ptr getelementptr inbounds ([3 x %struct.anon.8], ptr getelementptr inbounds nuw (%struct._zend_phpdbg_globals, ptr @phpdbg_globals, i32 0, i32 40), i64 0, i64 1), align 4, !tbaa !40
  %34 = call i32 (i32, i32, ptr, ...) @phpdbg_print(i32 noundef 2, i32 noundef %33, ptr noundef @.str.43)
  %35 = load i32, ptr getelementptr inbounds ([3 x %struct.anon.8], ptr getelementptr inbounds nuw (%struct._zend_phpdbg_globals, ptr @phpdbg_globals, i32 0, i32 40), i64 0, i64 1), align 4, !tbaa !40
  %36 = call i32 (i32, i32, ptr, ...) @phpdbg_print(i32 noundef 2, i32 noundef %35, ptr noundef @.str.44)
  %37 = load i32, ptr getelementptr inbounds ([3 x %struct.anon.8], ptr getelementptr inbounds nuw (%struct._zend_phpdbg_globals, ptr @phpdbg_globals, i32 0, i32 40), i64 0, i64 1), align 4, !tbaa !40
  %38 = load i64, ptr %3, align 8, !tbaa !88
  %39 = udiv i64 %38, 1024
  %40 = uitofp i64 %39 to float
  %41 = fpext float %40 to double
  %42 = call i32 (i32, i32, ptr, ...) @phpdbg_print(i32 noundef 3, i32 noundef %37, ptr noundef @.str.45, double noundef %41)
  %43 = load i32, ptr getelementptr inbounds ([3 x %struct.anon.8], ptr getelementptr inbounds nuw (%struct._zend_phpdbg_globals, ptr @phpdbg_globals, i32 0, i32 40), i64 0, i64 1), align 4, !tbaa !40
  %44 = load i64, ptr %4, align 8, !tbaa !88
  %45 = udiv i64 %44, 1024
  %46 = uitofp i64 %45 to float
  %47 = fpext float %46 to double
  %48 = call i32 (i32, i32, ptr, ...) @phpdbg_print(i32 noundef 3, i32 noundef %43, ptr noundef @.str.46, double noundef %47)
  %49 = load i32, ptr getelementptr inbounds ([3 x %struct.anon.8], ptr getelementptr inbounds nuw (%struct._zend_phpdbg_globals, ptr @phpdbg_globals, i32 0, i32 40), i64 0, i64 1), align 4, !tbaa !40
  %50 = call i32 (i32, i32, ptr, ...) @phpdbg_print(i32 noundef 2, i32 noundef %49, ptr noundef @.str.47)
  %51 = load i32, ptr getelementptr inbounds ([3 x %struct.anon.8], ptr getelementptr inbounds nuw (%struct._zend_phpdbg_globals, ptr @phpdbg_globals, i32 0, i32 40), i64 0, i64 1), align 4, !tbaa !40
  %52 = load i64, ptr %5, align 8, !tbaa !88
  %53 = udiv i64 %52, 1024
  %54 = uitofp i64 %53 to float
  %55 = fpext float %54 to double
  %56 = call i32 (i32, i32, ptr, ...) @phpdbg_print(i32 noundef 3, i32 noundef %51, ptr noundef @.str.45, double noundef %55)
  %57 = load i32, ptr getelementptr inbounds ([3 x %struct.anon.8], ptr getelementptr inbounds nuw (%struct._zend_phpdbg_globals, ptr @phpdbg_globals, i32 0, i32 40), i64 0, i64 1), align 4, !tbaa !40
  %58 = load i64, ptr %6, align 8, !tbaa !88
  %59 = udiv i64 %58, 1024
  %60 = uitofp i64 %59 to float
  %61 = fpext float %60 to double
  %62 = call i32 (i32, i32, ptr, ...) @phpdbg_print(i32 noundef 3, i32 noundef %57, ptr noundef @.str.46, double noundef %61)
  br label %66

63:                                               ; preds = %29
  %64 = load i32, ptr getelementptr inbounds ([3 x %struct.anon.8], ptr getelementptr inbounds nuw (%struct._zend_phpdbg_globals, ptr @phpdbg_globals, i32 0, i32 40), i64 0, i64 1), align 4, !tbaa !40
  %65 = call i32 (i32, i32, ptr, ...) @phpdbg_print(i32 noundef 1, i32 noundef %64, ptr noundef @.str.48)
  br label %66

66:                                               ; preds = %63, %32
  call void @llvm.lifetime.end.p0(i64 1, ptr %8) #8
  call void @llvm.lifetime.end.p0(i64 8, ptr %7) #8
  call void @llvm.lifetime.end.p0(i64 8, ptr %6) #8
  call void @llvm.lifetime.end.p0(i64 8, ptr %5) #8
  call void @llvm.lifetime.end.p0(i64 8, ptr %4) #8
  call void @llvm.lifetime.end.p0(i64 8, ptr %3) #8
  ret i32 0
}