; Function Attrs: nounwind uwtable
define hidden noundef i32 @phpdbg_do_info_memory(ptr readnone captures(none) %0) #0 {
  %2 = load i64, ptr getelementptr inbounds nuw (i8, ptr @phpdbg_globals, i64 2184), align 8, !tbaa !118
  %3 = and i64 %2, 2147483648
  %.not = icmp eq i64 %3, 0
  br i1 %.not, label %7, label %4

4:                                                ; preds = %1
  %5 = tail call ptr @phpdbg_original_heap_sigsafe_mem() #6
  %6 = tail call ptr @zend_mm_set_heap(ptr noundef %5) #6
  br label %7

7:                                                ; preds = %4, %1
  %.06 = phi ptr [ %6, %4 ], [ null, %1 ]
  %8 = tail call zeroext i1 @is_zend_mm() #6
  br i1 %8, label %9, label %26

9:                                                ; preds = %7
  %10 = tail call i64 @zend_memory_usage(i1 noundef zeroext false) #6
  %11 = tail call i64 @zend_memory_usage(i1 noundef zeroext true) #6
  %12 = tail call i64 @zend_memory_peak_usage(i1 noundef zeroext false) #6
  %13 = tail call i64 @zend_memory_peak_usage(i1 noundef zeroext true) #6
  %14 = lshr i64 %10, 10
  %15 = uitofp nneg i64 %14 to float
  %16 = fpext float %15 to double
  %17 = lshr i64 %11, 10
  %18 = uitofp nneg i64 %17 to float
  %19 = fpext float %18 to double
  %20 = lshr i64 %12, 10
  %21 = uitofp nneg i64 %20 to float
  %22 = fpext float %21 to double
  %23 = lshr i64 %13, 10
  %24 = uitofp nneg i64 %23 to float
  %25 = fpext float %24 to double
  br label %26

26:                                               ; preds = %9, %7
  %.09 = phi double [ %19, %9 ], [ 0.000000e+00, %7 ]
  %.08 = phi double [ %22, %9 ], [ 0.000000e+00, %7 ]
  %.07 = phi double [ %25, %9 ], [ 0.000000e+00, %7 ]
  %.0 = phi double [ %16, %9 ], [ 0.000000e+00, %7 ]
  %.not10 = icmp eq ptr %.06, null
  br i1 %.not10, label %29, label %27

27:                                               ; preds = %26
  %28 = tail call ptr @zend_mm_set_heap(ptr noundef nonnull %.06) #6
  br label %29

29:                                               ; preds = %27, %26
  %30 = load i32, ptr getelementptr inbounds nuw (i8, ptr @phpdbg_globals, i64 1508), align 4, !tbaa !38
  br i1 %8, label %31, label %45

31:                                               ; preds = %29
  %32 = tail call i32 (i32, i32, ptr, ...) @phpdbg_print(i32 noundef 2, i32 noundef %30, ptr noundef nonnull @.str.43) #6
  %33 = load i32, ptr getelementptr inbounds nuw (i8, ptr @phpdbg_globals, i64 1508), align 4, !tbaa !38
  %34 = tail call i32 (i32, i32, ptr, ...) @phpdbg_print(i32 noundef 2, i32 noundef %33, ptr noundef nonnull @.str.44) #6
  %35 = load i32, ptr getelementptr inbounds nuw (i8, ptr @phpdbg_globals, i64 1508), align 4, !tbaa !38
  %36 = tail call i32 (i32, i32, ptr, ...) @phpdbg_print(i32 noundef 3, i32 noundef %35, ptr noundef nonnull @.str.45, double noundef %.0) #6
  %37 = load i32, ptr getelementptr inbounds nuw (i8, ptr @phpdbg_globals, i64 1508), align 4, !tbaa !38
  %38 = tail call i32 (i32, i32, ptr, ...) @phpdbg_print(i32 noundef 3, i32 noundef %37, ptr noundef nonnull @.str.46, double noundef %.09) #6
  %39 = load i32, ptr getelementptr inbounds nuw (i8, ptr @phpdbg_globals, i64 1508), align 4, !tbaa !38
  %40 = tail call i32 (i32, i32, ptr, ...) @phpdbg_print(i32 noundef 2, i32 noundef %39, ptr noundef nonnull @.str.47) #6
  %41 = load i32, ptr getelementptr inbounds nuw (i8, ptr @phpdbg_globals, i64 1508), align 4, !tbaa !38
  %42 = tail call i32 (i32, i32, ptr, ...) @phpdbg_print(i32 noundef 3, i32 noundef %41, ptr noundef nonnull @.str.45, double noundef %.08) #6
  %43 = load i32, ptr getelementptr inbounds nuw (i8, ptr @phpdbg_globals, i64 1508), align 4, !tbaa !38
  %44 = tail call i32 (i32, i32, ptr, ...) @phpdbg_print(i32 noundef 3, i32 noundef %43, ptr noundef nonnull @.str.46, double noundef %.07) #6
  br label %47

45:                                               ; preds = %29
  %46 = tail call i32 (i32, i32, ptr, ...) @phpdbg_print(i32 noundef 1, i32 noundef %30, ptr noundef nonnull @.str.48) #6
  br label %47

47:                                               ; preds = %45, %31
  ret i32 0
}